target datalayout = "e-m:e-p270:32:32-p271:32:32-p272:64:64-i64:64-i128:128-f80:128-n8:16:32:64-S128"
target triple = "x86_64-pc-linux-gnu"

%struct.SDL_AtomicInt = type { i32 }
%struct.SDL_Window = type { i32, ptr, ptr, i32, i32, i32, i32, i32, i32, i32, i32, float, float, i32, i32, i64, i64, float, i8, i8, i32, i32, %struct.SDL_Rect, %struct.SDL_Rect, %struct.SDL_Rect, i8, i8, i8, %struct.SDL_DisplayMode, %struct.SDL_DisplayMode, %struct.SDL_HDROutputProperties, float, ptr, i8, i8, i8, i8, i8, i8, i8, i8, i8, i32, i32, i32, i32, %struct.SDL_Rect, i32, i8, %struct.SDL_Rect, i32, %struct.SDL_Rect, ptr, ptr, i32, float, i32, i32, ptr, ptr, ptr, ptr, ptr, ptr, ptr, ptr, ptr }
%struct.SDL_DisplayMode = type { i32, i32, i32, i32, float, float, i32, i32, ptr }
%struct.SDL_HDROutputProperties = type { float, float }
%struct.SDL_Rect = type { i32, i32, i32, i32 }
%struct.SDL_VideoDevice = type { ptr, ptr, ptr, ptr, ptr, ptr, ptr, ptr, ptr, ptr, ptr, ptr, ptr, ptr, ptr, ptr, ptr, ptr, ptr, ptr, ptr, ptr, ptr, ptr, ptr, ptr, ptr, ptr, ptr, ptr, ptr, ptr, ptr, ptr, ptr, ptr, ptr, ptr, ptr, ptr, ptr, ptr, ptr, ptr, ptr, ptr, ptr, ptr, ptr, ptr, ptr, ptr, ptr, ptr, ptr, ptr, ptr, ptr, ptr, ptr, ptr, ptr, ptr, ptr, ptr, ptr, ptr, ptr, ptr, ptr, ptr, ptr, ptr, ptr, ptr, ptr, ptr, ptr, ptr, ptr, ptr, ptr, ptr, ptr, ptr, ptr, ptr, ptr, ptr, ptr, ptr, ptr, ptr, ptr, ptr, ptr, ptr, i64, i8, i8, i8, ptr, i32, ptr, %struct.SDL_Rect, ptr, ptr, i32, ptr, ptr, ptr, ptr, i64, ptr, i8, i32, i32, %struct.anon, ptr, ptr, ptr, ptr, ptr, ptr, %struct.SDL_AtomicInt, %struct.SDL_AtomicInt, i8, %struct.anon.0, ptr, ptr, ptr, ptr, ptr }
%struct.anon = type { i32, i32, i32, i32, i32, i32, i32, i32, i32, i32, i32, i32, i32, i32, i32, i32, i32, i32, i32, i32, i32, i32, i32, i32, i32, i32, i32, i32, i32, [256 x i8], ptr }
%struct.anon.0 = type { ptr, ptr, i32, [256 x i8], ptr }

@.str.1 = private unnamed_addr constant [41 x i8] c"Video subsystem has not been initialized\00", align 1
@_this = internal global ptr null, align 8
@.str.20 = private unnamed_addr constant [15 x i8] c"Invalid window\00", align 1
@.str.22 = private unnamed_addr constant [35 x i8] c"Operation invalid on popup windows\00", align 1
@.str.24 = private unnamed_addr constant [32 x i8] c"That operation is not supported\00", align 1
@.str.54 = private unnamed_addr constant [68 x i8] c"A window without the 'SDL_WINDOW_RESIZABLE' flag can't be maximized\00", align 1

; Function Attrs: nounwind uwtable
define hidden zeroext i1 @SDL_UninitializedVideo() #0 {
  %1 = call zeroext i1 (ptr, ...) @SDL_SetError_REAL(ptr noundef @.str.1)
  ret i1 %1
}

; Function Attrs: nounwind uwtable
define hidden zeroext i1 @SDL_MaximizeWindow_REAL(ptr noundef %0) #0 {
  %2 = alloca i1, align 1
  %3 = alloca ptr, align 8
  store ptr %0, ptr %3, align 8
  %4 = load ptr, ptr @_this, align 8
  %5 = icmp ne ptr %4, null
  br i1 %5, label %8, label %6

6:                                                ; preds = %1
  %7 = call zeroext i1 @SDL_UninitializedVideo()
  store i1 false, ptr %2, align 1
  br label %54

8:                                                ; preds = %1
  %9 = load ptr, ptr %3, align 8
  %10 = call zeroext i1 @SDL_ObjectValid(ptr noundef %9, i32 noundef 1)
  br i1 %10, label %13, label %11

11:                                               ; preds = %8
  %12 = call zeroext i1 (ptr, ...) @SDL_SetError_REAL(ptr noundef @.str.20)
  store i1 false, ptr %2, align 1
  br label %54

13:                                               ; preds = %8
  %14 = load ptr, ptr %3, align 8
  %15 = getelementptr inbounds nuw %struct.SDL_Window, ptr %14, i32 0, i32 15
  %16 = load i64, ptr %15, align 8
  %17 = and i64 %16, 786432
  %18 = icmp ne i64 %17, 0
  br i1 %18, label %19, label %21

19:                                               ; preds = %13
  %20 = call zeroext i1 (ptr, ...) @SDL_SetError_REAL(ptr noundef @.str.22)
  store i1 false, ptr %2, align 1
  br label %54

21:                                               ; preds = %13
  %22 = load ptr, ptr @_this, align 8
  %23 = getelementptr inbounds nuw %struct.SDL_VideoDevice, ptr %22, i32 0, i32 26
  %24 = load ptr, ptr %23, align 8
  %25 = icmp ne ptr %24, null
  br i1 %25, label %28, label %26

26:                                               ; preds = %21
  %27 = call zeroext i1 (ptr, ...) @SDL_SetError_REAL(ptr noundef @.str.24)
  store i1 %27, ptr %2, align 1
  br label %54

28:                                               ; preds = %21
  %29 = load ptr, ptr %3, align 8
  %30 = getelementptr inbounds nuw %struct.SDL_Window, ptr %29, i32 0, i32 15
  %31 = load i64, ptr %30, align 8
  %32 = and i64 %31, 32
  %33 = icmp ne i64 %32, 0
  br i1 %33, label %36, label %34

34:                                               ; preds = %28
  %35 = call zeroext i1 (ptr, ...) @SDL_SetError_REAL(ptr noundef @.str.54)
  store i1 %35, ptr %2, align 1
  br label %54

36:                                               ; preds = %28
  %37 = load ptr, ptr %3, align 8
  %38 = getelementptr inbounds nuw %struct.SDL_Window, ptr %37, i32 0, i32 15
  %39 = load i64, ptr %38, align 8
  %40 = and i64 %39, 8
  %41 = icmp ne i64 %40, 0
  br i1 %41, label %42, label %47

42:                                               ; preds = %36
  %43 = load ptr, ptr %3, align 8
  %44 = getelementptr inbounds nuw %struct.SDL_Window, ptr %43, i32 0, i32 16
  %45 = load i64, ptr %44, align 8
  %46 = or i64 %45, 128
  store i64 %46, ptr %44, align 8
  store i1 true, ptr %2, align 1
  br label %54

47:                                               ; preds = %36
  %48 = load ptr, ptr @_this, align 8
  %49 = getelementptr inbounds nuw %struct.SDL_VideoDevice, ptr %48, i32 0, i32 26
  %50 = load ptr, ptr %49, align 8
  %51 = load ptr, ptr @_this, align 8
  %52 = load ptr, ptr %3, align 8
  call void %50(ptr noundef %51, ptr noundef %52)
  %53 = load ptr, ptr %3, align 8
  call void @SDL_SyncIfRequired(ptr noundef %53)
  store i1 true, ptr %2, align 1
  br label %54

54:                                               ; preds = %47, %42, %34, %26, %19, %11, %6
  %55 = load i1, ptr %2, align 1
  ret i1 %55
}