; Function Attrs: nounwind uwtable
define hidden zeroext i1 @SDL_MaximizeWindow_REAL(ptr noundef %0) local_unnamed_addr #0 {
  %2 = load ptr, ptr @_this, align 8
  %.not = icmp eq ptr %2, null
  br i1 %.not, label %3, label %5

3:                                                ; preds = %1
  %4 = tail call zeroext i1 (ptr, ...) @SDL_SetError_REAL(ptr noundef nonnull @.str.1) #19
  br label %32

5:                                                ; preds = %1
  %6 = tail call zeroext i1 @SDL_ObjectValid(ptr noundef %0, i32 noundef 1) #19
  br i1 %6, label %9, label %7

7:                                                ; preds = %5
  %8 = tail call zeroext i1 (ptr, ...) @SDL_SetError_REAL(ptr noundef nonnull @.str.20) #19
  br label %32

9:                                                ; preds = %5
  %10 = getelementptr inbounds nuw i8, ptr %0, i64 72
  %11 = load i64, ptr %10, align 8
  %12 = and i64 %11, 786432
  %.not9 = icmp eq i64 %12, 0
  br i1 %.not9, label %15, label %13

13:                                               ; preds = %9
  %14 = tail call zeroext i1 (ptr, ...) @SDL_SetError_REAL(ptr noundef nonnull @.str.22) #19
  br label %32

15:                                               ; preds = %9
  %16 = load ptr, ptr @_this, align 8
  %17 = getelementptr inbounds nuw i8, ptr %16, i64 208
  %18 = load ptr, ptr %17, align 8
  %.not10 = icmp eq ptr %18, null
  br i1 %.not10, label %19, label %21

19:                                               ; preds = %15
  %20 = tail call zeroext i1 (ptr, ...) @SDL_SetError_REAL(ptr noundef nonnull @.str.24) #19
  br label %32

21:                                               ; preds = %15
  %22 = and i64 %11, 32
  %.not11 = icmp eq i64 %22, 0
  br i1 %.not11, label %23, label %25

23:                                               ; preds = %21
  %24 = tail call zeroext i1 (ptr, ...) @SDL_SetError_REAL(ptr noundef nonnull @.str.54) #19
  br label %32

25:                                               ; preds = %21
  %26 = and i64 %11, 8
  %.not12 = icmp eq i64 %26, 0
  br i1 %.not12, label %31, label %27

27:                                               ; preds = %25
  %28 = getelementptr inbounds nuw i8, ptr %0, i64 80
  %29 = load i64, ptr %28, align 8
  %30 = or i64 %29, 128
  store i64 %30, ptr %28, align 8
  br label %32

31:                                               ; preds = %25
  tail call void %18(ptr noundef nonnull %16, ptr noundef nonnull %0) #19
  tail call fastcc void @SDL_SyncIfRequired(ptr noundef nonnull %0)
  br label %32

32:                                               ; preds = %31, %27, %23, %19, %13, %7, %3
  %.0 = phi i1 [ false, %13 ], [ true, %27 ], [ true, %31 ], [ %24, %23 ], [ %20, %19 ], [ false, %7 ], [ false, %3 ]
  ret i1 %.0
}